target datalayout = "e-m:e-p270:32:32-p271:32:32-p272:64:64-i64:64-i128:128-f80:128-n8:16:32:64-S128"
target triple = "x86_64-pc-linux-gnu"

%struct._MAD = type { i8, i8, i8, i8, i16, i8, i8, i64, i16, i16, i32 }

@hf_opa_SwitchPortCongestionSetting = internal global i32 0, align 4
@hf_opa_SwitchPortCongestionSetting_Valid = internal global i32 0, align 4
@hf_opa_SwitchPortCongestionSetting_Control_Type = internal global i32 0, align 4
@hf_opa_SwitchPortCongestionSetting_reserved = internal global i32 0, align 4
@hf_opa_SwitchPortCongestionSetting_Threshold = internal global i32 0, align 4
@hf_opa_SwitchPortCongestionSetting_Packet_Size = internal global i32 0, align 4
@hf_opa_SwitchPortCongestionSetting_Marking_Rate = internal global i32 0, align 4
@ett_switchportcongestionsetting = internal global i32 0, align 4
@ett_switchportcongestionsetting_port = internal global i32 0, align 4
@.str.2365 = private unnamed_addr constant [42 x i8] c"Switch Port Congestion Setting on Port %u\00", align 1

; Function Attrs: null_pointer_is_valid sspstrong uwtable
define internal i32 @parse_SwitchPortCongestionSetting(ptr noundef %0, ptr noundef %1, ptr noundef %2, ptr noundef %3) #0 {
  %5 = alloca i32, align 4
  %6 = alloca ptr, align 8
  %7 = alloca ptr, align 8
  %8 = alloca ptr, align 8
  %9 = alloca ptr, align 8
  %10 = alloca i32, align 4
  %11 = alloca ptr, align 8
  %12 = alloca ptr, align 8
  %13 = alloca ptr, align 8
  %14 = alloca i32, align 4
  %15 = alloca i32, align 4
  %16 = alloca i32, align 4
  %17 = alloca i32, align 4
  store ptr %0, ptr %6, align 8
  store ptr %1, ptr %7, align 8
  store ptr %2, ptr %8, align 8
  store ptr %3, ptr %9, align 8
  call void @llvm.lifetime.start.p0(i64 4, ptr %10) #7
  %18 = load ptr, ptr %8, align 8
  %19 = load i32, ptr %18, align 4
  store i32 %19, ptr %10, align 4
  call void @llvm.lifetime.start.p0(i64 8, ptr %11) #7
  call void @llvm.lifetime.start.p0(i64 8, ptr %12) #7
  call void @llvm.lifetime.start.p0(i64 8, ptr %13) #7
  call void @llvm.lifetime.start.p0(i64 4, ptr %14) #7
  call void @llvm.lifetime.start.p0(i64 4, ptr %15) #7
  call void @llvm.lifetime.start.p0(i64 4, ptr %16) #7
  %20 = load ptr, ptr %6, align 8
  %21 = icmp ne ptr %20, null
  br i1 %21, label %22, label %34

22:                                               ; preds = %4
  %23 = load ptr, ptr %9, align 8
  %24 = getelementptr inbounds nuw %struct._MAD, ptr %23, i32 0, i32 3
  %25 = load i8, ptr %24, align 1
  %26 = zext i8 %25 to i32
  %27 = icmp eq i32 %26, 1
  br i1 %27, label %34, label %28

28:                                               ; preds = %22
  %29 = load ptr, ptr %9, align 8
  %30 = getelementptr inbounds nuw %struct._MAD, ptr %29, i32 0, i32 3
  %31 = load i8, ptr %30, align 1
  %32 = zext i8 %31 to i32
  %33 = icmp eq i32 %32, 18
  br i1 %33, label %34, label %37

34:                                               ; preds = %28, %22, %4
  %35 = load ptr, ptr %8, align 8
  %36 = load i32, ptr %35, align 4
  store i32 %36, ptr %5, align 4
  store i32 1, ptr %17, align 4
  br label %125

37:                                               ; preds = %28
  %38 = load ptr, ptr %9, align 8
  %39 = getelementptr inbounds nuw %struct._MAD, ptr %38, i32 0, i32 1
  %40 = load i8, ptr %39, align 1
  %41 = zext i8 %40 to i32
  %42 = icmp eq i32 %41, 3
  br i1 %42, label %43, label %49

43:                                               ; preds = %37
  store i32 1, ptr %15, align 4
  %44 = load ptr, ptr %7, align 8
  %45 = load i32, ptr %10, align 4
  %46 = sub i32 %45, 4
  %47 = call zeroext i8 @tvb_get_uint8(ptr noundef %44, i32 noundef %46)
  %48 = zext i8 %47 to i32
  store i32 %48, ptr %16, align 4
  br label %59

49:                                               ; preds = %37
  %50 = load ptr, ptr %9, align 8
  %51 = getelementptr inbounds nuw %struct._MAD, ptr %50, i32 0, i32 10
  %52 = load i32, ptr %51, align 4
  %53 = and i32 %52, -16777216
  %54 = lshr i32 %53, 24
  store i32 %54, ptr %15, align 4
  %55 = load ptr, ptr %9, align 8
  %56 = getelementptr inbounds nuw %struct._MAD, ptr %55, i32 0, i32 10
  %57 = load i32, ptr %56, align 4
  %58 = and i32 %57, 255
  store i32 %58, ptr %16, align 4
  br label %59

59:                                               ; preds = %49, %43
  %60 = load ptr, ptr %6, align 8
  %61 = load i32, ptr @hf_opa_SwitchPortCongestionSetting, align 4
  %62 = load ptr, ptr %7, align 8
  %63 = load i32, ptr %10, align 4
  %64 = load i32, ptr %15, align 4
  %65 = mul i32 4, %64
  %66 = call ptr @proto_tree_add_item(ptr noundef %60, i32 noundef %61, ptr noundef %62, i32 noundef %63, i32 noundef %65, i32 noundef 0)
  store ptr %66, ptr %11, align 8
  %67 = load ptr, ptr %11, align 8
  %68 = load i32, ptr @ett_switchportcongestionsetting, align 4
  %69 = call ptr @proto_item_add_subtree(ptr noundef %67, i32 noundef %68)
  store ptr %69, ptr %12, align 8
  %70 = load i32, ptr %16, align 4
  store i32 %70, ptr %14, align 4
  br label %71

71:                                               ; preds = %120, %59
  %72 = load i32, ptr %14, align 4
  %73 = load i32, ptr %16, align 4
  %74 = load i32, ptr %15, align 4
  %75 = add i32 %73, %74
  %76 = icmp ult i32 %72, %75
  br i1 %76, label %77, label %123

77:                                               ; preds = %71
  %78 = load ptr, ptr %12, align 8
  %79 = load ptr, ptr %7, align 8
  %80 = load i32, ptr %10, align 4
  %81 = load i32, ptr @ett_switchportcongestionsetting_port, align 4
  %82 = load i32, ptr %14, align 4
  %83 = call ptr (ptr, ptr, i32, i32, i32, ptr, ptr, ...) @proto_tree_add_subtree_format(ptr noundef %78, ptr noundef %79, i32 noundef %80, i32 noundef 4, i32 noundef %81, ptr noundef null, ptr noundef @.str.2365, i32 noundef %82)
  store ptr %83, ptr %13, align 8
  %84 = load ptr, ptr %13, align 8
  %85 = load i32, ptr @hf_opa_SwitchPortCongestionSetting_Valid, align 4
  %86 = load ptr, ptr %7, align 8
  %87 = load i32, ptr %10, align 4
  %88 = call ptr @proto_tree_add_item(ptr noundef %84, i32 noundef %85, ptr noundef %86, i32 noundef %87, i32 noundef 1, i32 noundef 0)
  %89 = load ptr, ptr %13, align 8
  %90 = load i32, ptr @hf_opa_SwitchPortCongestionSetting_Control_Type, align 4
  %91 = load ptr, ptr %7, align 8
  %92 = load i32, ptr %10, align 4
  %93 = call ptr @proto_tree_add_item(ptr noundef %89, i32 noundef %90, ptr noundef %91, i32 noundef %92, i32 noundef 1, i32 noundef 0)
  %94 = load ptr, ptr %13, align 8
  %95 = load i32, ptr @hf_opa_SwitchPortCongestionSetting_reserved, align 4
  %96 = load ptr, ptr %7, align 8
  %97 = load i32, ptr %10, align 4
  %98 = call ptr @proto_tree_add_item(ptr noundef %94, i32 noundef %95, ptr noundef %96, i32 noundef %97, i32 noundef 1, i32 noundef 0)
  %99 = load ptr, ptr %13, align 8
  %100 = load i32, ptr @hf_opa_SwitchPortCongestionSetting_Threshold, align 4
  %101 = load ptr, ptr %7, align 8
  %102 = load i32, ptr %10, align 4
  %103 = call ptr @proto_tree_add_item(ptr noundef %99, i32 noundef %100, ptr noundef %101, i32 noundef %102, i32 noundef 1, i32 noundef 0)
  %104 = load i32, ptr %10, align 4
  %105 = add i32 %104, 1
  store i32 %105, ptr %10, align 4
  %106 = load ptr, ptr %13, align 8
  %107 = load i32, ptr @hf_opa_SwitchPortCongestionSetting_Packet_Size, align 4
  %108 = load ptr, ptr %7, align 8
  %109 = load i32, ptr %10, align 4
  %110 = call ptr @proto_tree_add_item(ptr noundef %106, i32 noundef %107, ptr noundef %108, i32 noundef %109, i32 noundef 1, i32 noundef 0)
  %111 = load i32, ptr %10, align 4
  %112 = add i32 %111, 1
  store i32 %112, ptr %10, align 4
  %113 = load ptr, ptr %13, align 8
  %114 = load i32, ptr @hf_opa_SwitchPortCongestionSetting_Marking_Rate, align 4
  %115 = load ptr, ptr %7, align 8
  %116 = load i32, ptr %10, align 4
  %117 = call ptr @proto_tree_add_item(ptr noundef %113, i32 noundef %114, ptr noundef %115, i32 noundef %116, i32 noundef 2, i32 noundef 0)
  %118 = load i32, ptr %10, align 4
  %119 = add i32 %118, 2
  store i32 %119, ptr %10, align 4
  br label %120

120:                                              ; preds = %77
  %121 = load i32, ptr %14, align 4
  %122 = add i32 %121, 1
  store i32 %122, ptr %14, align 4
  br label %71, !llvm.loop !40

123:                                              ; preds = %71
  %124 = load i32, ptr %10, align 4
  store i32 %124, ptr %5, align 4
  store i32 1, ptr %17, align 4
  br label %125

125:                                              ; preds = %123, %34
  call void @llvm.lifetime.end.p0(i64 4, ptr %16) #7
  call void @llvm.lifetime.end.p0(i64 4, ptr %15) #7
  call void @llvm.lifetime.end.p0(i64 4, ptr %14) #7
  call void @llvm.lifetime.end.p0(i64 8, ptr %13) #7
  call void @llvm.lifetime.end.p0(i64 8, ptr %12) #7
  call void @llvm.lifetime.end.p0(i64 8, ptr %11) #7
  call void @llvm.lifetime.end.p0(i64 4, ptr %10) #7
  %126 = load i32, ptr %5, align 4
  ret i32 %126
}