; Function Attrs: null_pointer_is_valid sspstrong uwtable
define internal fastcc i32 @parse_SwitchPortCongestionSetting(ptr noundef %0, ptr noundef %1, i32 %.0.val, ptr noundef readonly captures(none) %2) unnamed_addr #0 {
  %.not = icmp eq ptr %0, null
  br i1 %.not, label %.loopexit, label %4

4:                                                ; preds = %3
  %5 = getelementptr inbounds nuw i8, ptr %2, i64 3
  %6 = load i8, ptr %5, align 1
  switch i8 %6, label %7 [
    i8 1, label %.loopexit
    i8 18, label %.loopexit
  ]

7:                                                ; preds = %4
  %8 = getelementptr inbounds nuw i8, ptr %2, i64 1
  %9 = load i8, ptr %8, align 1
  %10 = icmp eq i8 %9, 3
  br i1 %10, label %11, label %15

11:                                               ; preds = %7
  %12 = add i32 %.0.val, -4
  %13 = tail call zeroext i8 @tvb_get_uint8(ptr noundef %1, i32 noundef %12)
  %14 = zext i8 %13 to i32
  br label %20

15:                                               ; preds = %7
  %16 = getelementptr inbounds nuw i8, ptr %2, i64 20
  %17 = load i32, ptr %16, align 4
  %18 = lshr i32 %17, 24
  %19 = and i32 %17, 255
  br label %20

20:                                               ; preds = %15, %11
  %.046 = phi i32 [ 1, %11 ], [ %18, %15 ]
  %.0 = phi i32 [ %14, %11 ], [ %19, %15 ]
  %21 = load i32, ptr @hf_opa_SwitchPortCongestionSetting, align 4
  %22 = shl nuw nsw i32 %.046, 2
  %23 = tail call ptr @proto_tree_add_item(ptr noundef nonnull %0, i32 noundef %21, ptr noundef %1, i32 noundef %.0.val, i32 noundef %22, i32 noundef 0)
  %24 = load i32, ptr @ett_switchportcongestionsetting, align 4
  %25 = tail call ptr @proto_item_add_subtree(ptr noundef %23, i32 noundef %24)
  %26 = add nuw nsw i32 %.0, %.046
  %.not3 = icmp eq i32 %.046, 0
  br i1 %.not3, label %.loopexit, label %.lr.ph

.lr.ph:                                           ; preds = %20, %.lr.ph
  %.0472 = phi i32 [ %44, %.lr.ph ], [ %.0, %20 ]
  %.0491 = phi i32 [ %43, %.lr.ph ], [ %.0.val, %20 ]
  %27 = load i32, ptr @ett_switchportcongestionsetting_port, align 4
  %28 = tail call ptr (ptr, ptr, i32, i32, i32, ptr, ptr, ...) @proto_tree_add_subtree_format(ptr noundef %25, ptr noundef %1, i32 noundef %.0491, i32 noundef 4, i32 noundef %27, ptr noundef null, ptr noundef nonnull @.str.2365, i32 noundef %.0472)
  %29 = load i32, ptr @hf_opa_SwitchPortCongestionSetting_Valid, align 4
  %30 = tail call ptr @proto_tree_add_item(ptr noundef %28, i32 noundef %29, ptr noundef %1, i32 noundef %.0491, i32 noundef 1, i32 noundef 0)
  %31 = load i32, ptr @hf_opa_SwitchPortCongestionSetting_Control_Type, align 4
  %32 = tail call ptr @proto_tree_add_item(ptr noundef %28, i32 noundef %31, ptr noundef %1, i32 noundef %.0491, i32 noundef 1, i32 noundef 0)
  %33 = load i32, ptr @hf_opa_SwitchPortCongestionSetting_reserved, align 4
  %34 = tail call ptr @proto_tree_add_item(ptr noundef %28, i32 noundef %33, ptr noundef %1, i32 noundef %.0491, i32 noundef 1, i32 noundef 0)
  %35 = load i32, ptr @hf_opa_SwitchPortCongestionSetting_Threshold, align 4
  %36 = tail call ptr @proto_tree_add_item(ptr noundef %28, i32 noundef %35, ptr noundef %1, i32 noundef %.0491, i32 noundef 1, i32 noundef 0)
  %37 = add i32 %.0491, 1
  %38 = load i32, ptr @hf_opa_SwitchPortCongestionSetting_Packet_Size, align 4
  %39 = tail call ptr @proto_tree_add_item(ptr noundef %28, i32 noundef %38, ptr noundef %1, i32 noundef %37, i32 noundef 1, i32 noundef 0)
  %40 = add i32 %.0491, 2
  %41 = load i32, ptr @hf_opa_SwitchPortCongestionSetting_Marking_Rate, align 4
  %42 = tail call ptr @proto_tree_add_item(ptr noundef %28, i32 noundef %41, ptr noundef %1, i32 noundef %40, i32 noundef 2, i32 noundef 0)
  %43 = add i32 %.0491, 4
  %44 = add nuw nsw i32 %.0472, 1
  %45 = icmp samesign ult i32 %44, %26
  br i1 %45, label %.lr.ph, label %.loopexit, !llvm.loop !49

.loopexit:                                        ; preds = %.lr.ph, %20, %3, %4, %4
  %.048 = phi i32 [ %.0.val, %4 ], [ %.0.val, %4 ], [ %.0.val, %3 ], [ %.0.val, %20 ], [ %43, %.lr.ph ]
  ret i32 %.048
}